; ModuleID = '12/1506.c'
source_filename = "12/1506.c"
target datalayout = "e-m:e-p270:32:32-p271:32:32-p272:64:64-i64:64-f80:128-n8:16:32:64-S128"
target triple = "x86_64-pc-linux-gnu"

@.str = private unnamed_addr constant [3 x i8] c"%d\00", align 1
@.str.1 = private unnamed_addr constant [4 x i8] c"%d\0A\00", align 1

; Function Attrs: noinline nounwind uwtable
define dso_local i32 @main() #0 {
  %1 = alloca i32, align 4
  %2 = alloca [16 x i32], align 16
  %3 = alloca i32, align 4
  %4 = alloca i32, align 4
  %5 = alloca i32, align 4
  %6 = alloca i32, align 4
  store i32 0, i32* %1, align 4
  br label %7

7:                                                ; preds = %0, %91
  store i32 0, i32* %6, align 4
  store i32 0, i32* %5, align 4
  store i32 0, i32* %4, align 4
  store i32 0, i32* %3, align 4
  store i32 0, i32* %3, align 4
  br label %8

8:                                                ; preds = %15, %7
  %9 = load i32, i32* %3, align 4
  %10 = icmp slt i32 %9, 16
  br i1 %10, label %11, label %18

11:                                               ; preds = %8
  %12 = load i32, i32* %3, align 4
  %13 = sext i32 %12 to i64
  %14 = getelementptr inbounds [16 x i32], [16 x i32]* %2, i64 0, i64 %13
  store i32 0, i32* %14, align 4
  br label %15

15:                                               ; preds = %11
  %16 = load i32, i32* %3, align 4
  %17 = add nsw i32 %16, 1
  store i32 %17, i32* %3, align 4
  br label %8

18:                                               ; preds = %8
  store i32 0, i32* %3, align 4
  br label %19

19:                                               ; preds = %39, %18
  %20 = load i32, i32* %3, align 4
  %21 = sext i32 %20 to i64
  %22 = getelementptr inbounds [16 x i32], [16 x i32]* %2, i64 0, i64 %21
  %23 = call i32 (i8*, ...) @__isoc99_scanf(i8* getelementptr inbounds ([3 x i8], [3 x i8]* @.str, i64 0, i64 0), i32* %22)
  %24 = icmp ne i32 %23, 0
  br i1 %24, label %25, label %42

25:                                               ; preds = %19
  %26 = load i32, i32* %3, align 4
  %27 = sext i32 %26 to i64
  %28 = getelementptr inbounds [16 x i32], [16 x i32]* %2, i64 0, i64 %27
  %29 = load i32, i32* %28, align 4
  %30 = icmp eq i32 %29, -1
  br i1 %30, label %37, label %31

31:                                               ; preds = %25
  %32 = load i32, i32* %3, align 4
  %33 = sext i32 %32 to i64
  %34 = getelementptr inbounds [16 x i32], [16 x i32]* %2, i64 0, i64 %33
  %35 = load i32, i32* %34, align 4
  %36 = icmp eq i32 %35, 0
  br i1 %36, label %37, label %38

37:                                               ; preds = %31, %25
  br label %42

38:                                               ; preds = %31
  br label %39

39:                                               ; preds = %38
  %40 = load i32, i32* %3, align 4
  %41 = add nsw i32 %40, 1
  store i32 %41, i32* %3, align 4
  br label %19

42:                                               ; preds = %37, %19
  %43 = getelementptr inbounds [16 x i32], [16 x i32]* %2, i64 0, i64 0
  %44 = load i32, i32* %43, align 16
  %45 = icmp eq i32 %44, -1
  br i1 %45, label %46, label %47

46:                                               ; preds = %42
  br label %94

47:                                               ; preds = %42
  store i32 0, i32* %6, align 4
  store i32 1, i32* %4, align 4
  br label %48

48:                                               ; preds = %87, %47
  %49 = load i32, i32* %4, align 4
  %50 = load i32, i32* %3, align 4
  %51 = icmp slt i32 %49, %50
  br i1 %51, label %52, label %90

52:                                               ; preds = %48
  store i32 0, i32* %5, align 4
  br label %53

53:                                               ; preds = %83, %52
  %54 = load i32, i32* %5, align 4
  %55 = load i32, i32* %4, align 4
  %56 = icmp slt i32 %54, %55
  br i1 %56, label %57, label %86

57:                                               ; preds = %53
  %58 = load i32, i32* %5, align 4
  %59 = sext i32 %58 to i64
  %60 = getelementptr inbounds [16 x i32], [16 x i32]* %2, i64 0, i64 %59
  %61 = load i32, i32* %60, align 4
  %62 = load i32, i32* %4, align 4
  %63 = sext i32 %62 to i64
  %64 = getelementptr inbounds [16 x i32], [16 x i32]* %2, i64 0, i64 %63
  %65 = load i32, i32* %64, align 4
  %66 = mul nsw i32 2, %65
  %67 = icmp eq i32 %61, %66
  br i1 %67, label %79, label %68

68:                                               ; preds = %57
  %69 = load i32, i32* %4, align 4
  %70 = sext i32 %69 to i64
  %71 = getelementptr inbounds [16 x i32], [16 x i32]* %2, i64 0, i64 %70
  %72 = load i32, i32* %71, align 4
  %73 = load i32, i32* %5, align 4
  %74 = sext i32 %73 to i64
  %75 = getelementptr inbounds [16 x i32], [16 x i32]* %2, i64 0, i64 %74
  %76 = load i32, i32* %75, align 4
  %77 = mul nsw i32 2, %76
  %78 = icmp eq i32 %72, %77
  br i1 %78, label %79, label %82

79:                                               ; preds = %68, %57
  %80 = load i32, i32* %6, align 4
  %81 = add nsw i32 %80, 1
  store i32 %81, i32* %6, align 4
  br label %82

82:                                               ; preds = %79, %68
  br label %83

83:                                               ; preds = %82
  %84 = load i32, i32* %5, align 4
  %85 = add nsw i32 %84, 1
  store i32 %85, i32* %5, align 4
  br label %53

86:                                               ; preds = %53
  br label %87

87:                                               ; preds = %86
  %88 = load i32, i32* %4, align 4
  %89 = add nsw i32 %88, 1
  store i32 %89, i32* %4, align 4
  br label %48

90:                                               ; preds = %48
  br label %91

91:                                               ; preds = %90
  %92 = load i32, i32* %6, align 4
  %93 = call i32 (i8*, ...) @printf(i8* getelementptr inbounds ([4 x i8], [4 x i8]* @.str.1, i64 0, i64 0), i32 %92)
  br label %7

94:                                               ; preds = %46
  ret i32 0
}

declare dso_local i32 @__isoc99_scanf(i8*, ...) #1

declare dso_local i32 @printf(i8*, ...) #1


!llvm.module.flags = !{!0}
!llvm.ident = !{!1}

!0 = !{i32 1, !"wchar_size", i32 4}
!1 = !{!"clang version 10.0.0-4ubuntu1 "}
